(lp0
S'The'
p1
aS'variable'
p2
aS'raw'
p3
aS'contains'
p4
aS'a'
p5
aS'string'
p6
aS'with'
p7
aS'1,176,893'
p8
aS'characters'
p9
aS'.'
p10
aS'When'
p11
aS'I'
p12
aS'sleep'
p13
aS'you'
p14
aS'are'
p15
aS'working'
p16
ag10
aS'My'
p17
aS'``'
p18
aS'dog'
p19
aS"''"
p20
aS'is'
p21
aS'really'
p22
ag5
aS'cat'
p23
ag10
a.